target datalayout = "e-m:e-p270:32:32-p271:32:32-p272:64:64-i64:64-i128:128-f80:128-n8:16:32:64-S128"
target triple = "x86_64-unknown-linux-gnu"

%"class.dd::bdd_manager" = type { i32, %class.svector, %class.ptr_hashtable, %class.hashtable, %class.svector.2, %class.svector.2, ptr, %class.svector.2, %class.svector.2, %class.svector.2, %class.svector.2, %class.small_object_allocator, %class.svector.2, i32, %class.svector.4, %class.svector.2, i8, i8, i32, %class.svector.2, %class.svector.2, %class.svector.2, %class.vector.6, %class.svector.2, i32, i32 }
%class.svector = type { %class.vector }
%class.vector = type { ptr }
%class.ptr_hashtable = type { %class.core_hashtable.base, [4 x i8] }
%class.core_hashtable.base = type <{ ptr, i32, i32, i32 }>
%class.hashtable = type { %class.core_hashtable.base.1, [4 x i8] }
%class.core_hashtable.base.1 = type <{ ptr, i32, i32, i32 }>
%class.small_object_allocator = type { [32 x ptr], [32 x ptr], i64 }
%class.svector.4 = type { %class.vector.5 }
%class.vector.5 = type { ptr }
%class.vector.6 = type { ptr }
%class.svector.2 = type { %class.vector.3 }
%class.vector.3 = type { ptr }
%"struct.dd::bdd_manager::op_entry" = type { i32, i32, i32, i32 }

; Function Attrs: mustprogress nounwind uwtable
define linkonce_odr hidden void @_ZN2dd11bdd_manager8op_entryC2Ejjj(ptr noundef nonnull align 4 dereferenceable(16) %this, i32 noundef %l, i32 noundef %r, i32 noundef %op) unnamed_addr #5 comdat align 2 {
entry:
  %this.addr = alloca ptr, align 8
  %l.addr = alloca i32, align 4
  %r.addr = alloca i32, align 4
  %op.addr = alloca i32, align 4
  store ptr %this, ptr %this.addr, align 8
  store i32 %l, ptr %l.addr, align 4
  store i32 %r, ptr %r.addr, align 4
  store i32 %op, ptr %op.addr, align 4
  %this1 = load ptr, ptr %this.addr, align 8
  %m_bdd1 = getelementptr inbounds %"struct.dd::bdd_manager::op_entry", ptr %this1, i32 0, i32 0
  %0 = load i32, ptr %l.addr, align 4
  store i32 %0, ptr %m_bdd1, align 4
  %m_bdd2 = getelementptr inbounds %"struct.dd::bdd_manager::op_entry", ptr %this1, i32 0, i32 1
  %1 = load i32, ptr %r.addr, align 4
  store i32 %1, ptr %m_bdd2, align 4
  %m_op = getelementptr inbounds %"struct.dd::bdd_manager::op_entry", ptr %this1, i32 0, i32 2
  %2 = load i32, ptr %op.addr, align 4
  store i32 %2, ptr %m_op, align 4
  %m_result = getelementptr inbounds %"struct.dd::bdd_manager::op_entry", ptr %this1, i32 0, i32 3
  store i32 0, ptr %m_result, align 4
  ret void
}

; Function Attrs: mustprogress uwtable
define hidden noundef ptr @_ZN2dd11bdd_manager9pop_entryEjjj(ptr noundef nonnull align 8 dereferenceable(728) %this, i32 noundef %l, i32 noundef %r, i32 noundef %op) #4 align 2 {
entry:
  %this.addr = alloca ptr, align 8
  %l.addr = alloca i32, align 4
  %r.addr = alloca i32, align 4
  %op.addr = alloca i32, align 4
  %result = alloca ptr, align 8
  %mem = alloca ptr, align 8
  store ptr %this, ptr %this.addr, align 8
  store i32 %l, ptr %l.addr, align 4
  store i32 %r, ptr %r.addr, align 4
  store i32 %op, ptr %op.addr, align 4
  %this1 = load ptr, ptr %this.addr, align 8
  store ptr null, ptr %result, align 8
  %m_spare_entry = getelementptr inbounds %"class.dd::bdd_manager", ptr %this1, i32 0, i32 6
  %0 = load ptr, ptr %m_spare_entry, align 8
  %tobool = icmp ne ptr %0, null
  br i1 %tobool, label %if.then, label %if.else

if.then:                                          ; preds = %entry
  %m_spare_entry2 = getelementptr inbounds %"class.dd::bdd_manager", ptr %this1, i32 0, i32 6
  %1 = load ptr, ptr %m_spare_entry2, align 8
  store ptr %1, ptr %result, align 8
  %m_spare_entry3 = getelementptr inbounds %"class.dd::bdd_manager", ptr %this1, i32 0, i32 6
  store ptr null, ptr %m_spare_entry3, align 8
  %2 = load i32, ptr %l.addr, align 4
  %3 = load ptr, ptr %result, align 8
  %m_bdd1 = getelementptr inbounds %"struct.dd::bdd_manager::op_entry", ptr %3, i32 0, i32 0
  store i32 %2, ptr %m_bdd1, align 4
  %4 = load i32, ptr %r.addr, align 4
  %5 = load ptr, ptr %result, align 8
  %m_bdd2 = getelementptr inbounds %"struct.dd::bdd_manager::op_entry", ptr %5, i32 0, i32 1
  store i32 %4, ptr %m_bdd2, align 4
  %6 = load i32, ptr %op.addr, align 4
  %7 = load ptr, ptr %result, align 8
  %m_op = getelementptr inbounds %"struct.dd::bdd_manager::op_entry", ptr %7, i32 0, i32 2
  store i32 %6, ptr %m_op, align 4
  br label %if.end

if.else:                                          ; preds = %entry
  %m_alloc = getelementptr inbounds %"class.dd::bdd_manager", ptr %this1, i32 0, i32 11
  %call = call noundef ptr @_ZN22small_object_allocator8allocateEm(ptr noundef nonnull align 8 dereferenceable(520) %m_alloc, i64 noundef 16)
  store ptr %call, ptr %mem, align 8
  %8 = load ptr, ptr %mem, align 8
  %9 = load i32, ptr %l.addr, align 4
  %10 = load i32, ptr %r.addr, align 4
  %11 = load i32, ptr %op.addr, align 4
  call void @_ZN2dd11bdd_manager8op_entryC2Ejjj(ptr noundef nonnull align 4 dereferenceable(16) %8, i32 noundef %9, i32 noundef %10, i32 noundef %11)
  store ptr %8, ptr %result, align 8
  br label %if.end

if.end:                                           ; preds = %if.else, %if.then
  %null_bdd = getelementptr inbounds %"class.dd::bdd_manager", ptr %this1, i32 0, i32 0
  %12 = load i32, ptr %null_bdd, align 8
  %13 = load ptr, ptr %result, align 8
  %m_result = getelementptr inbounds %"struct.dd::bdd_manager::op_entry", ptr %13, i32 0, i32 3
  store i32 %12, ptr %m_result, align 4
  %14 = load ptr, ptr %result, align 8
  ret ptr %14
}