; Function Attrs: mustprogress uwtable
define hidden noundef ptr @_ZN2dd11bdd_manager9pop_entryEjjj(ptr noundef nonnull align 8 dereferenceable(728) %this, i32 noundef %l, i32 noundef %r, i32 noundef %op) local_unnamed_addr #3 align 2 {
entry:
  %m_spare_entry = getelementptr inbounds i8, ptr %this, i64 80
  %0 = load ptr, ptr %m_spare_entry, align 8
  %tobool.not = icmp eq ptr %0, null
  br i1 %tobool.not, label %if.else, label %if.then

if.then:                                          ; preds = %entry
  store ptr null, ptr %m_spare_entry, align 8
  store i32 %l, ptr %0, align 4
  %m_bdd2 = getelementptr inbounds i8, ptr %0, i64 4
  store i32 %r, ptr %m_bdd2, align 4
  %m_op = getelementptr inbounds i8, ptr %0, i64 8
  store i32 %op, ptr %m_op, align 4
  br label %if.end

if.else:                                          ; preds = %entry
  %m_alloc = getelementptr inbounds i8, ptr %this, i64 120
  %call = tail call noundef ptr @_ZN22small_object_allocator8allocateEm(ptr noundef nonnull align 8 dereferenceable(520) %m_alloc, i64 noundef 16)
  store i32 %l, ptr %call, align 4
  %m_bdd2.i = getelementptr inbounds i8, ptr %call, i64 4
  store i32 %r, ptr %m_bdd2.i, align 4
  %m_op.i = getelementptr inbounds i8, ptr %call, i64 8
  store i32 %op, ptr %m_op.i, align 4
  %m_result.i = getelementptr inbounds i8, ptr %call, i64 12
  store i32 0, ptr %m_result.i, align 4
  br label %if.end

if.end:                                           ; preds = %if.else, %if.then
  %result.0 = phi ptr [ %0, %if.then ], [ %call, %if.else ]
  %1 = load i32, ptr %this, align 8
  %m_result = getelementptr inbounds i8, ptr %result.0, i64 12
  store i32 %1, ptr %m_result, align 4
  ret ptr %result.0
}